; Function Attrs: mustprogress nofree norecurse nosync nounwind willreturn memory(read, inaccessiblemem: none) uwtable
define dso_local noundef float @_ZN24btInverseDynamicsBullet36maxAbsERKNS_4vecxE(ptr noundef nonnull readonly align 8 captures(none) dereferenceable(32) %0) local_unnamed_addr #3 {
  %2 = getelementptr inbounds nuw i8, ptr %0, i64 4
  %3 = load i32, ptr %2, align 4, !tbaa !8
  %4 = icmp sgt i32 %3, 0
  br i1 %4, label %.lr.ph, label %._crit_edge

.lr.ph:                                           ; preds = %1
  %5 = getelementptr inbounds nuw i8, ptr %0, i64 16
  %6 = load ptr, ptr %5, align 8, !tbaa !15
  %wide.trip.count = zext nneg i32 %3 to i64
  br label %7

._crit_edge:                                      ; preds = %7, %1
  %.0.lcssa = phi float [ 0.000000e+00, %1 ], [ %.1, %7 ]
  ret float %.0.lcssa

7:                                                ; preds = %.lr.ph, %7
  %indvars.iv = phi i64 [ 0, %.lr.ph ], [ %indvars.iv.next, %7 ]
  %.011 = phi float [ 0.000000e+00, %.lr.ph ], [ %.1, %7 ]
  %8 = getelementptr inbounds nuw float, ptr %6, i64 %indvars.iv
  %9 = load float, ptr %8, align 4, !tbaa !4
  %10 = tail call noundef float @llvm.fabs.f32(float %9)
  %11 = fcmp ogt float %10, %.011
  %.1 = select i1 %11, float %10, float %.011
  %indvars.iv.next = add nuw nsw i64 %indvars.iv, 1
  %exitcond.not = icmp eq i64 %indvars.iv.next, %wide.trip.count
  br i1 %exitcond.not, label %._crit_edge, label %7, !llvm.loop !16
}